; Function Attrs: null_pointer_is_valid sspstrong uwtable
define hidden void @proto_register_gvrp() local_unnamed_addr #0 {
  %1 = tail call i32 @proto_register_protocol(ptr noundef nonnull @.str.14, ptr noundef nonnull @.str.15, ptr noundef nonnull @.str.16)
  store i32 %1, ptr @proto_gvrp, align 4
  tail call void @proto_register_field_array(i32 noundef %1, ptr noundef nonnull @proto_register_gvrp.hf, i32 noundef 6)
  tail call void @proto_register_subtree_array(ptr noundef nonnull @proto_register_gvrp.ett, i32 noundef 3)
  %2 = load i32, ptr @proto_gvrp, align 4
  %3 = tail call ptr @expert_register_protocol(i32 noundef %2)
  tail call void @expert_register_field_array(ptr noundef %3, ptr noundef nonnull @proto_register_gvrp.ei, i32 noundef 1)
  %4 = load i32, ptr @proto_gvrp, align 4
  %5 = tail call ptr @register_dissector(ptr noundef nonnull @.str.16, ptr noundef nonnull @dissect_gvrp, i32 noundef %4)
  ret void
}